; Function Attrs: nounwind uwtable
define i32 @exr_attr_set_double(ptr noundef %0, i32 noundef %1, ptr noundef %2, double noundef %3) local_unnamed_addr #0 {
  %5 = alloca ptr, align 8
  call void @llvm.lifetime.start.p0(i64 8, ptr nonnull %5) #6
  store ptr null, ptr %5, align 8, !tbaa !30
  %.not = icmp eq ptr %0, null
  br i1 %.not, label %63, label %6

6:                                                ; preds = %4
  %7 = getelementptr inbounds nuw i8, ptr %0, i64 504
  %8 = tail call i32 @pthread_mutex_lock(ptr noundef nonnull %7) #6
  %9 = icmp slt i32 %1, 0
  br i1 %9, label %13, label %10

10:                                               ; preds = %6
  %11 = getelementptr inbounds nuw i8, ptr %0, i64 196
  %12 = load i32, ptr %11, align 4, !tbaa !22
  %.not47 = icmp slt i32 %1, %12
  br i1 %.not47, label %18, label %13

13:                                               ; preds = %10, %6
  %14 = tail call i32 @pthread_mutex_unlock(ptr noundef nonnull %7) #6
  %15 = getelementptr inbounds nuw i8, ptr %0, i64 72
  %16 = load ptr, ptr %15, align 8, !tbaa !23
  %17 = tail call i32 (ptr, i32, ptr, ...) %16(ptr noundef nonnull %0, i32 noundef 4, ptr noundef nonnull @.str, i32 noundef %1) #6
  br label %63

18:                                               ; preds = %10
  %19 = load i8, ptr %0, align 8, !tbaa !3
  switch i8 %19, label %30 [
    i8 0, label %20
    i8 3, label %25
  ]

20:                                               ; preds = %18
  %21 = tail call i32 @pthread_mutex_unlock(ptr noundef nonnull %7) #6
  %22 = getelementptr inbounds nuw i8, ptr %0, i64 56
  %23 = load ptr, ptr %22, align 8, !tbaa !27
  %24 = tail call i32 %23(ptr noundef nonnull %0, i32 noundef 8) #6
  br label %63

25:                                               ; preds = %18
  %26 = tail call i32 @pthread_mutex_unlock(ptr noundef nonnull %7) #6
  %27 = getelementptr inbounds nuw i8, ptr %0, i64 56
  %28 = load ptr, ptr %27, align 8, !tbaa !27
  %29 = tail call i32 %28(ptr noundef nonnull %0, i32 noundef 21) #6
  br label %63

30:                                               ; preds = %18
  %31 = getelementptr inbounds nuw i8, ptr %0, i64 472
  %32 = load ptr, ptr %31, align 8, !tbaa !24
  %33 = zext nneg i32 %1 to i64
  %34 = getelementptr inbounds nuw ptr, ptr %32, i64 %33
  %35 = load ptr, ptr %34, align 8, !tbaa !25
  %36 = getelementptr inbounds nuw i8, ptr %35, i64 8
  %37 = call i32 @exr_attr_list_find_by_name(ptr noundef nonnull %0, ptr noundef nonnull %36, ptr noundef %2, ptr noundef nonnull %5) #6
  switch i32 %37, label %54 [
    i32 15, label %38
    i32 0, label %42
  ]

38:                                               ; preds = %30
  %39 = load i8, ptr %0, align 8, !tbaa !3
  switch i8 %39, label %40 [
    i8 1, label %56
    i8 4, label %56
  ]

40:                                               ; preds = %38
  %41 = call i32 @pthread_mutex_unlock(ptr noundef nonnull %7) #6
  br label %63

42:                                               ; preds = %30
  %43 = load ptr, ptr %5, align 8, !tbaa !30
  %44 = getelementptr inbounds nuw i8, ptr %43, i64 20
  %45 = load i32, ptr %44, align 4, !tbaa !32
  %.not48 = icmp eq i32 %45, 6
  br i1 %.not48, label %.thread, label %46

46:                                               ; preds = %42
  %47 = call i32 @pthread_mutex_unlock(ptr noundef nonnull %7) #6
  %48 = getelementptr inbounds nuw i8, ptr %0, i64 72
  %49 = load ptr, ptr %48, align 8, !tbaa !23
  %50 = load ptr, ptr %5, align 8, !tbaa !30
  %51 = getelementptr inbounds nuw i8, ptr %50, i64 8
  %52 = load ptr, ptr %51, align 8, !tbaa !34
  %53 = call i32 (ptr, i32, ptr, ...) %49(ptr noundef nonnull %0, i32 noundef 16, ptr noundef nonnull @.str.45, ptr noundef %2, ptr noundef %52) #6
  br label %63

54:                                               ; preds = %30
  %55 = call i32 @pthread_mutex_unlock(ptr noundef nonnull %7) #6
  br label %63

56:                                               ; preds = %38, %38
  %57 = call i32 @exr_attr_list_add(ptr noundef nonnull %0, ptr noundef nonnull %36, ptr noundef %2, i32 noundef 6, i32 noundef 0, ptr noundef null, ptr noundef nonnull %5) #6
  %58 = icmp eq i32 %57, 0
  br i1 %58, label %..thread_crit_edge, label %61

..thread_crit_edge:                               ; preds = %56
  %.pre = load ptr, ptr %5, align 8, !tbaa !30
  br label %.thread

.thread:                                          ; preds = %..thread_crit_edge, %42
  %59 = phi ptr [ %.pre, %..thread_crit_edge ], [ %43, %42 ]
  %60 = getelementptr inbounds nuw i8, ptr %59, i64 24
  store double %3, ptr %60, align 8, !tbaa !35
  br label %61

61:                                               ; preds = %.thread, %56
  %.04152 = phi i32 [ 0, %.thread ], [ %57, %56 ]
  %62 = call i32 @pthread_mutex_unlock(ptr noundef nonnull %7) #6
  br label %63

63:                                               ; preds = %4, %61, %54, %46, %40, %25, %20, %13
  %.0 = phi i32 [ %17, %13 ], [ %24, %20 ], [ %29, %25 ], [ 15, %40 ], [ %.04152, %61 ], [ %53, %46 ], [ %37, %54 ], [ 2, %4 ]
  call void @llvm.lifetime.end.p0(i64 8, ptr nonnull %5) #6
  ret i32 %.0
}